target datalayout = "e-m:e-p270:32:32-p271:32:32-p272:64:64-i64:64-i128:128-f80:128-n8:16:32:64-S128"
target triple = "x86_64-pc-linux-gnu"

@bio_err = external global ptr, align 8
@.str.170 = private unnamed_addr constant [6 x i8] c"today\00", align 1
@.str.171 = private unnamed_addr constant [70 x i8] c"%s is invalid, it should be \22today\22 or have format [CC]YYMMDDHHMMSSZ\0A\00", align 1
@.str.172 = private unnamed_addr constant [11 x i8] c"start date\00", align 1
@.str.173 = private unnamed_addr constant [9 x i8] c"end date\00", align 1
@.str.174 = private unnamed_addr constant [43 x i8] c"Error setting notBefore certificate field\0A\00", align 1
@.str.175 = private unnamed_addr constant [42 x i8] c"Error setting notAfter certificate field\0A\00", align 1
@.str.176 = private unnamed_addr constant [32 x i8] c"%s: end date before start date\0A\00", align 1
@.str.177 = private unnamed_addr constant [6 x i8] c"Error\00", align 1
@.str.178 = private unnamed_addr constant [8 x i8] c"Warning\00", align 1

; Function Attrs: nounwind uwtable
define dso_local i32 @check_cert_time_string(ptr noundef %0, ptr noundef %1) #0 {
  %3 = alloca i32, align 4
  %4 = alloca ptr, align 8
  %5 = alloca ptr, align 8
  store ptr %0, ptr %4, align 8, !tbaa !9
  store ptr %1, ptr %5, align 8, !tbaa !9
  %6 = load ptr, ptr %4, align 8, !tbaa !9
  %7 = icmp eq ptr %6, null
  br i1 %7, label %16, label %8

8:                                                ; preds = %2
  %9 = load ptr, ptr %4, align 8, !tbaa !9
  %10 = call i32 @strcmp(ptr noundef %9, ptr noundef @.str.170) #14
  %11 = icmp eq i32 %10, 0
  br i1 %11, label %16, label %12

12:                                               ; preds = %8
  %13 = load ptr, ptr %4, align 8, !tbaa !9
  %14 = call i32 @ASN1_TIME_set_string_X509(ptr noundef null, ptr noundef %13)
  %15 = icmp ne i32 %14, 0
  br i1 %15, label %16, label %17

16:                                               ; preds = %12, %8, %2
  store i32 1, ptr %3, align 4
  br label %21

17:                                               ; preds = %12
  %18 = load ptr, ptr @bio_err, align 8, !tbaa !35
  %19 = load ptr, ptr %5, align 8, !tbaa !9
  %20 = call i32 (ptr, ptr, ...) @BIO_printf(ptr noundef %18, ptr noundef @.str.171, ptr noundef %19)
  store i32 0, ptr %3, align 4
  br label %21

21:                                               ; preds = %17, %16
  %22 = load i32, ptr %3, align 4
  ret i32 %22
}

; Function Attrs: nounwind uwtable
define dso_local i32 @set_cert_times(ptr noundef %0, ptr noundef %1, ptr noundef %2, i32 noundef %3, i32 noundef %4) #0 {
  %6 = alloca i32, align 4
  %7 = alloca ptr, align 8
  %8 = alloca ptr, align 8
  %9 = alloca ptr, align 8
  %10 = alloca i32, align 4
  %11 = alloca i32, align 4
  store ptr %0, ptr %7, align 8, !tbaa !37
  store ptr %1, ptr %8, align 8, !tbaa !9
  store ptr %2, ptr %9, align 8, !tbaa !9
  store i32 %3, ptr %10, align 4, !tbaa !25
  store i32 %4, ptr %11, align 4, !tbaa !25
  %12 = load ptr, ptr %8, align 8, !tbaa !9
  %13 = call i32 @check_cert_time_string(ptr noundef %12, ptr noundef @.str.172)
  %14 = icmp ne i32 %13, 0
  br i1 %14, label %16, label %15

15:                                               ; preds = %5
  store i32 0, ptr %6, align 4
  br label %96

16:                                               ; preds = %5
  %17 = load ptr, ptr %9, align 8, !tbaa !9
  %18 = call i32 @check_cert_time_string(ptr noundef %17, ptr noundef @.str.173)
  %19 = icmp ne i32 %18, 0
  br i1 %19, label %21, label %20

20:                                               ; preds = %16
  store i32 0, ptr %6, align 4
  br label %96

21:                                               ; preds = %16
  %22 = load ptr, ptr %8, align 8, !tbaa !9
  %23 = icmp eq ptr %22, null
  br i1 %23, label %28, label %24

24:                                               ; preds = %21
  %25 = load ptr, ptr %8, align 8, !tbaa !9
  %26 = call i32 @strcmp(ptr noundef %25, ptr noundef @.str.170) #14
  %27 = icmp eq i32 %26, 0
  br i1 %27, label %28, label %37

28:                                               ; preds = %24, %21
  %29 = load ptr, ptr %7, align 8, !tbaa !37
  %30 = call ptr @X509_getm_notBefore(ptr noundef %29)
  %31 = call ptr @X509_gmtime_adj(ptr noundef %30, i64 noundef 0)
  %32 = icmp eq ptr %31, null
  br i1 %32, label %33, label %36

33:                                               ; preds = %28
  %34 = load ptr, ptr @bio_err, align 8, !tbaa !35
  %35 = call i32 (ptr, ptr, ...) @BIO_printf(ptr noundef %34, ptr noundef @.str.174)
  store i32 0, ptr %6, align 4
  br label %96

36:                                               ; preds = %28
  br label %47

37:                                               ; preds = %24
  %38 = load ptr, ptr %7, align 8, !tbaa !37
  %39 = call ptr @X509_getm_notBefore(ptr noundef %38)
  %40 = load ptr, ptr %8, align 8, !tbaa !9
  %41 = call i32 @ASN1_TIME_set_string_X509(ptr noundef %39, ptr noundef %40)
  %42 = icmp ne i32 %41, 0
  br i1 %42, label %46, label %43

43:                                               ; preds = %37
  %44 = load ptr, ptr @bio_err, align 8, !tbaa !35
  %45 = call i32 (ptr, ptr, ...) @BIO_printf(ptr noundef %44, ptr noundef @.str.174)
  store i32 0, ptr %6, align 4
  br label %96

46:                                               ; preds = %37
  br label %47

47:                                               ; preds = %46, %36
  %48 = load ptr, ptr %9, align 8, !tbaa !9
  %49 = icmp ne ptr %48, null
  br i1 %49, label %50, label %55

50:                                               ; preds = %47
  %51 = load ptr, ptr %9, align 8, !tbaa !9
  %52 = call i32 @strcmp(ptr noundef %51, ptr noundef @.str.170) #14
  %53 = icmp eq i32 %52, 0
  br i1 %53, label %54, label %55

54:                                               ; preds = %50
  store ptr null, ptr %9, align 8, !tbaa !9
  store i32 0, ptr %10, align 4, !tbaa !25
  br label %55

55:                                               ; preds = %54, %50, %47
  %56 = load ptr, ptr %9, align 8, !tbaa !9
  %57 = icmp eq ptr %56, null
  br i1 %57, label %58, label %68

58:                                               ; preds = %55
  %59 = load ptr, ptr %7, align 8, !tbaa !37
  %60 = call ptr @X509_getm_notAfter(ptr noundef %59)
  %61 = load i32, ptr %10, align 4, !tbaa !25
  %62 = call ptr @X509_time_adj_ex(ptr noundef %60, i32 noundef %61, i64 noundef 0, ptr noundef null)
  %63 = icmp eq ptr %62, null
  br i1 %63, label %64, label %67

64:                                               ; preds = %58
  %65 = load ptr, ptr @bio_err, align 8, !tbaa !35
  %66 = call i32 (ptr, ptr, ...) @BIO_printf(ptr noundef %65, ptr noundef @.str.175)
  store i32 0, ptr %6, align 4
  br label %96

67:                                               ; preds = %58
  br label %78

68:                                               ; preds = %55
  %69 = load ptr, ptr %7, align 8, !tbaa !37
  %70 = call ptr @X509_getm_notAfter(ptr noundef %69)
  %71 = load ptr, ptr %9, align 8, !tbaa !9
  %72 = call i32 @ASN1_TIME_set_string_X509(ptr noundef %70, ptr noundef %71)
  %73 = icmp ne i32 %72, 0
  br i1 %73, label %77, label %74

74:                                               ; preds = %68
  %75 = load ptr, ptr @bio_err, align 8, !tbaa !35
  %76 = call i32 (ptr, ptr, ...) @BIO_printf(ptr noundef %75, ptr noundef @.str.175)
  store i32 0, ptr %6, align 4
  br label %96

77:                                               ; preds = %68
  br label %78

78:                                               ; preds = %77, %67
  %79 = load ptr, ptr %7, align 8, !tbaa !37
  %80 = call ptr @X509_get0_notAfter(ptr noundef %79)
  %81 = load ptr, ptr %7, align 8, !tbaa !37
  %82 = call ptr @X509_get0_notBefore(ptr noundef %81)
  %83 = call i32 @ASN1_TIME_compare(ptr noundef %80, ptr noundef %82)
  %84 = icmp slt i32 %83, 0
  br i1 %84, label %85, label %95

85:                                               ; preds = %78
  %86 = load ptr, ptr @bio_err, align 8, !tbaa !35
  %87 = load i32, ptr %11, align 4, !tbaa !25
  %88 = icmp ne i32 %87, 0
  %89 = select i1 %88, ptr @.str.177, ptr @.str.178
  %90 = call i32 (ptr, ptr, ...) @BIO_printf(ptr noundef %86, ptr noundef @.str.176, ptr noundef %89)
  %91 = load i32, ptr %11, align 4, !tbaa !25
  %92 = icmp ne i32 %91, 0
  br i1 %92, label %93, label %94

93:                                               ; preds = %85
  store i32 0, ptr %6, align 4
  br label %96

94:                                               ; preds = %85
  br label %95

95:                                               ; preds = %94, %78
  store i32 1, ptr %6, align 4
  br label %96

96:                                               ; preds = %95, %93, %74, %64, %43, %33, %20, %15
  %97 = load i32, ptr %6, align 4
  ret i32 %97
}