; Function Attrs: nounwind uwtable
define dso_local range(i32 0, 2) i32 @set_cert_times(ptr noundef %0, ptr noundef %1, ptr noundef %2, i32 noundef %3, i32 noundef %4) local_unnamed_addr #0 {
  %6 = icmp eq ptr %1, null
  br i1 %6, label %14, label %7

7:                                                ; preds = %5
  %8 = tail call i32 @strcmp(ptr noundef nonnull dereferenceable(1) %1, ptr noundef nonnull dereferenceable(6) @.str.170) #29
  %9 = icmp eq i32 %8, 0
  br i1 %9, label %14, label %10

10:                                               ; preds = %7
  %11 = tail call i32 @ASN1_TIME_set_string_X509(ptr noundef null, ptr noundef nonnull %1) #27
  %.not.i = icmp eq i32 %11, 0
  br i1 %.not.i, label %check_cert_time_string.exit, label %14

check_cert_time_string.exit:                      ; preds = %10
  %12 = load ptr, ptr @bio_err, align 8, !tbaa !26
  %13 = tail call i32 (ptr, ptr, ...) @BIO_printf(ptr noundef %12, ptr noundef nonnull @.str.171, ptr noundef nonnull @.str.172) #27
  br label %66

14:                                               ; preds = %10, %7, %5
  %15 = icmp eq ptr %2, null
  br i1 %15, label %23, label %16

16:                                               ; preds = %14
  %17 = tail call i32 @strcmp(ptr noundef nonnull dereferenceable(1) %2, ptr noundef nonnull dereferenceable(6) @.str.170) #29
  %18 = icmp eq i32 %17, 0
  br i1 %18, label %23, label %19

19:                                               ; preds = %16
  %20 = tail call i32 @ASN1_TIME_set_string_X509(ptr noundef null, ptr noundef nonnull %2) #27
  %.not.i28 = icmp eq i32 %20, 0
  br i1 %.not.i28, label %check_cert_time_string.exit30, label %23

check_cert_time_string.exit30:                    ; preds = %19
  %21 = load ptr, ptr @bio_err, align 8, !tbaa !26
  %22 = tail call i32 (ptr, ptr, ...) @BIO_printf(ptr noundef %21, ptr noundef nonnull @.str.171, ptr noundef nonnull @.str.173) #27
  br label %66

23:                                               ; preds = %19, %16, %14
  br i1 %6, label %27, label %24

24:                                               ; preds = %23
  %25 = tail call i32 @strcmp(ptr noundef nonnull dereferenceable(1) %1, ptr noundef nonnull dereferenceable(6) @.str.170) #29
  %26 = icmp eq i32 %25, 0
  br i1 %26, label %27, label %34

27:                                               ; preds = %24, %23
  %28 = tail call ptr @X509_getm_notBefore(ptr noundef %0) #27
  %29 = tail call ptr @X509_gmtime_adj(ptr noundef %28, i64 noundef 0) #27
  %30 = icmp eq ptr %29, null
  br i1 %30, label %31, label %40

31:                                               ; preds = %27
  %32 = load ptr, ptr @bio_err, align 8, !tbaa !26
  %33 = tail call i32 (ptr, ptr, ...) @BIO_printf(ptr noundef %32, ptr noundef nonnull @.str.174) #27
  br label %66

34:                                               ; preds = %24
  %35 = tail call ptr @X509_getm_notBefore(ptr noundef %0) #27
  %36 = tail call i32 @ASN1_TIME_set_string_X509(ptr noundef %35, ptr noundef nonnull %1) #27
  %.not23 = icmp eq i32 %36, 0
  br i1 %.not23, label %37, label %40

37:                                               ; preds = %34
  %38 = load ptr, ptr @bio_err, align 8, !tbaa !26
  %39 = tail call i32 (ptr, ptr, ...) @BIO_printf(ptr noundef %38, ptr noundef nonnull @.str.174) #27
  br label %66

40:                                               ; preds = %34, %27
  br i1 %15, label %select.unfold, label %41

41:                                               ; preds = %40
  %42 = tail call i32 @strcmp(ptr noundef nonnull dereferenceable(1) %2, ptr noundef nonnull dereferenceable(6) @.str.170) #29
  %43 = icmp eq i32 %42, 0
  br i1 %43, label %select.unfold, label %50

select.unfold:                                    ; preds = %41, %40
  %.018.ph = phi i32 [ %3, %40 ], [ 0, %41 ]
  %44 = tail call ptr @X509_getm_notAfter(ptr noundef %0) #27
  %45 = tail call ptr @X509_time_adj_ex(ptr noundef %44, i32 noundef %.018.ph, i64 noundef 0, ptr noundef null) #27
  %46 = icmp eq ptr %45, null
  br i1 %46, label %47, label %56

47:                                               ; preds = %select.unfold
  %48 = load ptr, ptr @bio_err, align 8, !tbaa !26
  %49 = tail call i32 (ptr, ptr, ...) @BIO_printf(ptr noundef %48, ptr noundef nonnull @.str.175) #27
  br label %66

50:                                               ; preds = %41
  %51 = tail call ptr @X509_getm_notAfter(ptr noundef %0) #27
  %52 = tail call i32 @ASN1_TIME_set_string_X509(ptr noundef %51, ptr noundef nonnull %2) #27
  %.not25 = icmp eq i32 %52, 0
  br i1 %.not25, label %53, label %56

53:                                               ; preds = %50
  %54 = load ptr, ptr @bio_err, align 8, !tbaa !26
  %55 = tail call i32 (ptr, ptr, ...) @BIO_printf(ptr noundef %54, ptr noundef nonnull @.str.175) #27
  br label %66

56:                                               ; preds = %50, %select.unfold
  %57 = tail call ptr @X509_get0_notAfter(ptr noundef %0) #27
  %58 = tail call ptr @X509_get0_notBefore(ptr noundef %0) #27
  %59 = tail call i32 @ASN1_TIME_compare(ptr noundef %57, ptr noundef %58) #27
  %60 = icmp slt i32 %59, 0
  br i1 %60, label %61, label %65

61:                                               ; preds = %56
  %62 = load ptr, ptr @bio_err, align 8, !tbaa !26
  %.not26 = icmp eq i32 %4, 0
  %63 = select i1 %.not26, ptr @.str.178, ptr @.str.177
  %64 = tail call i32 (ptr, ptr, ...) @BIO_printf(ptr noundef %62, ptr noundef nonnull @.str.176, ptr noundef nonnull %63) #27
  br i1 %.not26, label %65, label %66

65:                                               ; preds = %61, %56
  br label %66

66:                                               ; preds = %check_cert_time_string.exit30, %check_cert_time_string.exit, %61, %65, %53, %47, %37, %31
  %.0 = phi i32 [ 0, %31 ], [ 0, %47 ], [ 1, %65 ], [ 0, %53 ], [ 0, %37 ], [ 0, %check_cert_time_string.exit ], [ 0, %check_cert_time_string.exit30 ], [ 0, %61 ]
  ret i32 %.0
}